Certificate:
    Data:
        Version: 3 (0x2)
        Serial Number: 4 (0x4)
    Signature Algorithm: sha256WithRSAEncryption
        Issuer: CN=cacert, C=FI, ST=Helsinki, L=Helsinki, O=MariaDB
        Validity
            Not Before: Apr 24 08:07:51 2019 GMT
            Not After : Apr 19 08:07:51 2039 GMT
        Subject: C=FI, ST=Helsinki, L=Helsinki, O=MariaDB, CN=server
        Subject Public Key Info:
            Public Key Algorithm: rsaEncryption
                Public-Key: (1024 bit)
                Modulus:
                    00:de:a3:2e:a6:45:cb:00:89:fc:1e:de:bd:15:34:
                    34:49:8d:f8:30:d6:e8:6d:7a:a8:ef:91:93:62:94:
                    aa:34:c1:5b:7b:0e:d4:9f:88:88:03:de:f3:66:cf:
                    b7:da:4b:0d:a0:5f:0e:d2:6f:7a:8c:70:fd:20:ba:
                    5f:f6:29:a8:6b:57:9f:80:7b:11:77:9b:dd:26:55:
                    55:8c:a8:b7:f8:c5:0a:6b:66:ce:f3:92:5a:40:b8:
                    03:4f:d1:ed:7d:71:8d:ab:3e:06:a0:d0:7e:ec:af:
                    42:b8:19:d0:a4:38:30:d3:83:0c:24:41:98:55:3f:
                    f2:17:37:a5:8e:86:ef:fa:77
                Exponent: 65537 (0x10001)
        X509v3 extensions:
            X509v3 Subject Alternative Name: 
                IP Address:127.0.0.1, DNS:localhost
    Signature Algorithm: sha256WithRSAEncryption
         97:fd:9b:5f:2e:6d:b3:f7:0e:f6:ee:b3:53:06:98:76:e0:af:
         a1:84:b5:d5:0d:26:25:fe:26:05:ea:2d:18:7e:32:2b:52:5c:
         08:a8:c1:b3:26:b4:1f:7b:44:cf:0c:c6:c6:bc:64:48:10:bc:
         0f:cc:c2:e5:c0:e3:1a:48:4a:29:fd:2e:dc:b3:ce:af:5d:1f:
         ad:5a:e1:1a:c0:2a:6c:27:3e:d4:79:14:9d:b7:4f:3b:fe:1a:
         0a:0e:79:ef:a9:1a:39:7f:c7:75:46:be:12:f9:71:77:80:6e:
         7d:31:38:8b:db:bd:67:a0:fd:35:93:84:41:de:f7:fe:be:7d:
         c5:f8:83:0d:72:46:7a:e1:28:22:98:b5:75:13:21:f1:c8:6f:
         37:f4:d2:a1:16:a0:bf:ea:7f:6d:89:42:ed:fd:25:ec:61:0d:
         39:0a:a4:71:e3:fd:55:01:77:9f:fa:06:86:84:ef:c7:3d:05:
         ae:49:a1:b2:5e:69:c1:f9:c5:78:f0:63:6c:63:87:94:63:fa:
         d2:22:e4:fc:8b:80:9a:d6:0d:c5:f1:65:a2:a9:94:df:82:ea:
         8a:5c:be:da:78:69:b9:6b:3a:99:6f:98:62:4a:3c:4a:ee:07:
         9c:8c:8f:d4:6c:dc:0a:90:3e:db:f1:3c:28:ff:17:a0:31:cf:
         4e:f0:0c:cc
-----BEGIN CERTIFICATE-----
MIICwTCCAamgAwIBAgIBBDANBgkqhkiG9w0BAQsFADBWMQ8wDQYDVQQDDAZjYWNl
cnQxCzAJBgNVBAYTAkZJMREwDwYDVQQIDAhIZWxzaW5raTERMA8GA1UEBwwISGVs
c2lua2kxEDAOBgNVBAoMB01hcmlhREIwHhcNMTkwNDI0MDgwNzUxWhcNMzkwNDE5
MDgwNzUxWjBWMQswCQYDVQQGEwJGSTERMA8GA1UECAwISGVsc2lua2kxETAPBgNV
BAcMCEhlbHNpbmtpMRAwDgYDVQQKDAdNYXJpYURCMQ8wDQYDVQQDDAZzZXJ2ZXIw
gZ8wDQYJKoZIhvcNAQEBBQADgY0AMIGJAoGBAN6jLqZFywCJ/B7evRU0NEmN+DDW
6G16qO+Rk2KUqjTBW3sO1J+IiAPe82bPt9pLDaBfDtJveoxw/SC6X/YpqGtXn4B7
EXeb3SZVVYyot/jFCmtmzvOSWkC4A0/R7X1xjas+BqDQfuyvQrgZ0KQ4MNODDCRB
mFU/8hc3pY6G7/p3AgMBAAGjHjAcMBoGA1UdEQQTMBGHBH8AAAGCCWxvY2FsaG9z
dDANBgkqhkiG9w0BAQsFAAOCAQEAl/2bXy5ts/cO9u6zUwaYduCvoYS11Q0mJf4m
BeotGH4yK1JcCKjBsya0H3tEzwzGxrxkSBC8D8zC5cDjGkhKKf0u3LPOr10frVrh
GsAqbCc+1HkUnbdPO/4aCg5576kaOX/HdUa+Evlxd4BufTE4i9u9Z6D9NZOEQd73
/r59xfiDDXJGeuEoIpi1dRMh8chvN/TSoRagv+p/bYlC7f0l7GENOQqkceP9VQF3
n/oGhoTvxz0Frkmhsl5pwfnFePBjbGOHlGP60iLk/IuAmtYNxfFloqmU34Lqily+
2nhpuWs6mW+YYko8Su4HnIyP1GzcCpA+2/E8KP8XoDHPTvAMzA==
-----END CERTIFICATE-----
